target datalayout = "e-m:e-p270:32:32-p271:32:32-p272:64:64-i64:64-i128:128-f80:128-n8:16:32:64-S128"
target triple = "x86_64-pc-linux-gnu"

%"struct.cv::utils::trace::details::Region::LocationStaticStorage" = type { ptr, ptr, ptr, i32, i32 }
%"class.cv::utils::trace::details::Region" = type <{ ptr, i32, [4 x i8] }>

@_ZZN2cvL11dotProd_16sEPKsS1_iE25__cv_trace_location_fn955 = internal constant %"struct.cv::utils::trace::details::Region::LocationStaticStorage" { ptr @_ZZN2cvL11dotProd_16sEPKsS1_iE31__cv_trace_location_extra_fn955, ptr @.str.93, ptr @.str.8, i32 955, i32 1 }, align 8

; Function Attrs: inlinehint mustprogress nounwind uwtable
define internal noundef double @_ZN2cv12cpu_baselineL8dotProd_IsEEdPKT_S4_i(ptr noundef %0, ptr noundef %1, i32 noundef %2) #7 {
  %4 = alloca ptr, align 8
  %5 = alloca ptr, align 8
  %6 = alloca i32, align 4
  %7 = alloca i32, align 4
  %8 = alloca double, align 8
  store ptr %0, ptr %4, align 8, !tbaa !26
  store ptr %1, ptr %5, align 8, !tbaa !26
  store i32 %2, ptr %6, align 4, !tbaa !12
  call void @llvm.lifetime.start.p0(i64 4, ptr %7) #3
  store i32 0, ptr %7, align 4, !tbaa !12
  call void @llvm.lifetime.start.p0(i64 8, ptr %8) #3
  store double 0.000000e+00, ptr %8, align 8, !tbaa !21
  br label %9

9:                                                ; preds = %29, %3
  %10 = load i32, ptr %7, align 4, !tbaa !12
  %11 = load i32, ptr %6, align 4, !tbaa !12
  %12 = icmp slt i32 %10, %11
  br i1 %12, label %13, label %32

13:                                               ; preds = %9
  %14 = load ptr, ptr %4, align 8, !tbaa !26
  %15 = load i32, ptr %7, align 4, !tbaa !12
  %16 = sext i32 %15 to i64
  %17 = getelementptr inbounds i16, ptr %14, i64 %16
  %18 = load i16, ptr %17, align 2, !tbaa !112
  %19 = sitofp i16 %18 to double
  %20 = load ptr, ptr %5, align 8, !tbaa !26
  %21 = load i32, ptr %7, align 4, !tbaa !12
  %22 = sext i32 %21 to i64
  %23 = getelementptr inbounds i16, ptr %20, i64 %22
  %24 = load i16, ptr %23, align 2, !tbaa !112
  %25 = sext i16 %24 to i32
  %26 = sitofp i32 %25 to double
  %27 = load double, ptr %8, align 8, !tbaa !21
  %28 = call double @llvm.fmuladd.f64(double %19, double %26, double %27)
  store double %28, ptr %8, align 8, !tbaa !21
  br label %29

29:                                               ; preds = %13
  %30 = load i32, ptr %7, align 4, !tbaa !12
  %31 = add nsw i32 %30, 1
  store i32 %31, ptr %7, align 4, !tbaa !12
  br label %9, !llvm.loop !284

32:                                               ; preds = %9
  %33 = load double, ptr %8, align 8, !tbaa !21
  call void @llvm.lifetime.end.p0(i64 8, ptr %8) #3
  call void @llvm.lifetime.end.p0(i64 4, ptr %7) #3
  ret double %33
}

; Function Attrs: inlinehint mustprogress nounwind uwtable
define linkonce_odr hidden void @_ZN2cv5utils5trace7details6RegionD2Ev(ptr noundef nonnull align 8 dereferenceable(12) %0) unnamed_addr #7 comdat align 2 personality ptr @__gxx_personality_v0 {
  %2 = alloca ptr, align 8
  store ptr %0, ptr %2, align 8, !tbaa !14
  %3 = load ptr, ptr %2, align 8
  %4 = getelementptr inbounds nuw %"class.cv::utils::trace::details::Region", ptr %3, i32 0, i32 1
  %5 = load i32, ptr %4, align 8, !tbaa !16
  %6 = icmp ne i32 %5, 0
  br i1 %6, label %7, label %9

7:                                                ; preds = %1
  invoke void @_ZN2cv5utils5trace7details6Region7destroyEv(ptr noundef nonnull align 8 dereferenceable(12) %3)
          to label %8 unwind label %10

8:                                                ; preds = %7
  br label %9

9:                                                ; preds = %8, %1
  ret void

10:                                               ; preds = %7
  %11 = landingpad { ptr, i32 }
          catch ptr null
  %12 = extractvalue { ptr, i32 } %11, 0
  call void @__clang_call_terminate(ptr %12) #22
  unreachable
}

; Function Attrs: mustprogress uwtable
define hidden noundef double @_ZN2cv12cpu_baseline11dotProd_16sEPKsS2_i(ptr noundef %0, ptr noundef %1, i32 noundef %2) #4 {
  %4 = alloca ptr, align 8
  %5 = alloca ptr, align 8
  %6 = alloca i32, align 4
  %7 = alloca double, align 8
  %8 = alloca i32, align 4
  store ptr %0, ptr %4, align 8, !tbaa !26
  store ptr %1, ptr %5, align 8, !tbaa !26
  store i32 %2, ptr %6, align 4, !tbaa !12
  call void @llvm.lifetime.start.p0(i64 8, ptr %7) #3
  store double 0.000000e+00, ptr %7, align 8, !tbaa !21
  call void @llvm.lifetime.start.p0(i64 4, ptr %8) #3
  store i32 0, ptr %8, align 4, !tbaa !12
  %9 = load double, ptr %7, align 8, !tbaa !21
  %10 = load ptr, ptr %4, align 8, !tbaa !26
  %11 = load ptr, ptr %5, align 8, !tbaa !26
  %12 = load i32, ptr %6, align 4, !tbaa !12
  %13 = load i32, ptr %8, align 4, !tbaa !12
  %14 = sub nsw i32 %12, %13
  %15 = call noundef double @_ZN2cv12cpu_baselineL8dotProd_IsEEdPKT_S4_i(ptr noundef %10, ptr noundef %11, i32 noundef %14)
  %16 = fadd double %9, %15
  call void @llvm.lifetime.end.p0(i64 4, ptr %8) #3
  call void @llvm.lifetime.end.p0(i64 8, ptr %7) #3
  ret double %16
}

; Function Attrs: mustprogress uwtable
define internal noundef double @_ZN2cvL11dotProd_16sEPKsS1_i(ptr noundef %0, ptr noundef %1, i32 noundef %2) #4 personality ptr @__gxx_personality_v0 {
  %4 = alloca ptr, align 8
  %5 = alloca ptr, align 8
  %6 = alloca i32, align 4
  %7 = alloca %"class.cv::utils::trace::details::Region", align 8
  %8 = alloca ptr, align 8
  %9 = alloca i32, align 4
  store ptr %0, ptr %4, align 8, !tbaa !26
  store ptr %1, ptr %5, align 8, !tbaa !26
  store i32 %2, ptr %6, align 4, !tbaa !12
  call void @llvm.lifetime.start.p0(i64 16, ptr %7) #3
  call void @_ZN2cv5utils5trace7details6RegionC1ERKNS3_21LocationStaticStorageE(ptr noundef nonnull align 8 dereferenceable(12) %7, ptr noundef nonnull align 8 dereferenceable(32) @_ZZN2cvL11dotProd_16sEPKsS1_iE25__cv_trace_location_fn955)
  %10 = load ptr, ptr %4, align 8, !tbaa !26
  %11 = load ptr, ptr %5, align 8, !tbaa !26
  %12 = load i32, ptr %6, align 4, !tbaa !12
  %13 = invoke noundef double @_ZN2cv12cpu_baseline11dotProd_16sEPKsS2_i(ptr noundef %10, ptr noundef %11, i32 noundef %12)
          to label %14 unwind label %15

14:                                               ; preds = %3
  call void @_ZN2cv5utils5trace7details6RegionD2Ev(ptr noundef nonnull align 8 dereferenceable(12) %7) #3
  call void @llvm.lifetime.end.p0(i64 16, ptr %7) #3
  ret double %13

15:                                               ; preds = %3
  %16 = landingpad { ptr, i32 }
          cleanup
  %17 = extractvalue { ptr, i32 } %16, 0
  store ptr %17, ptr %8, align 8
  %18 = extractvalue { ptr, i32 } %16, 1
  store i32 %18, ptr %9, align 4
  call void @_ZN2cv5utils5trace7details6RegionD2Ev(ptr noundef nonnull align 8 dereferenceable(12) %7) #3
  call void @llvm.lifetime.end.p0(i64 16, ptr %7) #3
  br label %19

19:                                               ; preds = %15
  %20 = load ptr, ptr %8, align 8
  %21 = load i32, ptr %9, align 4
  %22 = insertvalue { ptr, i32 } poison, ptr %20, 0
  %23 = insertvalue { ptr, i32 } %22, i32 %21, 1
  resume { ptr, i32 } %23
}